target datalayout = "e-m:e-p270:32:32-p271:32:32-p272:64:64-i64:64-i128:128-f80:128-n8:16:32:64-S128"
target triple = "x86_64-pc-linux-gnu"

%struct.RelationData = type { %struct.RelFileLocator, ptr, i32, i32, i8, i8, i8, i8, i8, i32, i32, i32, i32, ptr, ptr, i32, %struct.LockInfoData, ptr, ptr, ptr, ptr, ptr, i8, ptr, ptr, ptr, ptr, ptr, ptr, i32, ptr, i8, ptr, ptr, i32, i8, i32, ptr, i8, ptr, ptr, ptr, ptr, ptr, ptr, ptr, i32, ptr, ptr, ptr, ptr, ptr, ptr, ptr, ptr, ptr, ptr, ptr, ptr, ptr, ptr, ptr, ptr, ptr, ptr, ptr, i32, i8, ptr }
%struct.RelFileLocator = type { i32, i32, i32 }
%struct.LockInfoData = type { %struct.LockRelId }
%struct.LockRelId = type { i32, i32 }

; Function Attrs: inlinehint nounwind uwtable
define internal i32 @DatumGetUInt32(i64 noundef %0) #3 {
  %2 = alloca i64, align 8
  store i64 %0, ptr %2, align 8
  %3 = load i64, ptr %2, align 8
  %4 = trunc i64 %3 to i32
  ret i32 %4
}

; Function Attrs: inlinehint nounwind uwtable
define internal i64 @UInt32GetDatum(i32 noundef %0) #3 {
  %2 = alloca i32, align 4
  store i32 %0, ptr %2, align 4
  %3 = load i32, ptr %2, align 4
  %4 = zext i32 %3 to i64
  ret i64 %4
}

; Function Attrs: nounwind uwtable
define dso_local i32 @_hash_datum2hashkey(ptr noundef %0, i64 noundef %1) #0 {
  %3 = alloca ptr, align 8
  %4 = alloca i64, align 8
  %5 = alloca ptr, align 8
  %6 = alloca i32, align 4
  store ptr %0, ptr %3, align 8
  store i64 %1, ptr %4, align 8
  call void @llvm.lifetime.start.p0(i64 8, ptr %5) #6
  call void @llvm.lifetime.start.p0(i64 4, ptr %6) #6
  %7 = load ptr, ptr %3, align 8
  %8 = call ptr @index_getprocinfo(ptr noundef %7, i16 noundef signext 1, i16 noundef zeroext 1)
  store ptr %8, ptr %5, align 8
  %9 = load ptr, ptr %3, align 8
  %10 = getelementptr inbounds nuw %struct.RelationData, ptr %9, i32 0, i32 62
  %11 = load ptr, ptr %10, align 8
  %12 = getelementptr inbounds i32, ptr %11, i64 0
  %13 = load i32, ptr %12, align 4
  store i32 %13, ptr %6, align 4
  %14 = load ptr, ptr %5, align 8
  %15 = load i32, ptr %6, align 4
  %16 = load i64, ptr %4, align 8
  %17 = call i64 @FunctionCall1Coll(ptr noundef %14, i32 noundef %15, i64 noundef %16)
  %18 = call i32 @DatumGetUInt32(i64 noundef %17)
  call void @llvm.lifetime.end.p0(i64 4, ptr %6) #6
  call void @llvm.lifetime.end.p0(i64 8, ptr %5) #6
  ret i32 %18
}

; Function Attrs: nounwind uwtable
define dso_local zeroext i1 @_hash_convert_tuple(ptr noundef %0, ptr noundef %1, ptr noundef %2, ptr noundef %3, ptr noundef %4) #0 {
  %6 = alloca i1, align 1
  %7 = alloca ptr, align 8
  %8 = alloca ptr, align 8
  %9 = alloca ptr, align 8
  %10 = alloca ptr, align 8
  %11 = alloca ptr, align 8
  %12 = alloca i32, align 4
  %13 = alloca i32, align 4
  store ptr %0, ptr %7, align 8
  store ptr %1, ptr %8, align 8
  store ptr %2, ptr %9, align 8
  store ptr %3, ptr %10, align 8
  store ptr %4, ptr %11, align 8
  call void @llvm.lifetime.start.p0(i64 4, ptr %12) #6
  %14 = load ptr, ptr %9, align 8
  %15 = getelementptr inbounds i8, ptr %14, i64 0
  %16 = load i8, ptr %15, align 1, !range !4, !noundef !5
  %17 = trunc i8 %16 to i1
  br i1 %17, label %18, label %19

18:                                               ; preds = %5
  store i1 false, ptr %6, align 1
  store i32 1, ptr %13, align 4
  br label %31

19:                                               ; preds = %5
  %20 = load ptr, ptr %7, align 8
  %21 = load ptr, ptr %8, align 8
  %22 = getelementptr inbounds i64, ptr %21, i64 0
  %23 = load i64, ptr %22, align 8
  %24 = call i32 @_hash_datum2hashkey(ptr noundef %20, i64 noundef %23)
  store i32 %24, ptr %12, align 4
  %25 = load i32, ptr %12, align 4
  %26 = call i64 @UInt32GetDatum(i32 noundef %25)
  %27 = load ptr, ptr %10, align 8
  %28 = getelementptr inbounds i64, ptr %27, i64 0
  store i64 %26, ptr %28, align 8
  %29 = load ptr, ptr %11, align 8
  %30 = getelementptr inbounds i8, ptr %29, i64 0
  store i8 0, ptr %30, align 1
  store i1 true, ptr %6, align 1
  store i32 1, ptr %13, align 4
  br label %31

31:                                               ; preds = %19, %18
  call void @llvm.lifetime.end.p0(i64 4, ptr %12) #6
  %32 = load i1, ptr %6, align 1
  ret i1 %32
}