; Function Attrs: nounwind uwtable
define dso_local noundef zeroext i1 @_hash_convert_tuple(ptr noundef %0, ptr noundef readonly captures(none) %1, ptr noundef readonly captures(none) %2, ptr noundef writeonly captures(none) %3, ptr noundef writeonly captures(none) %4) local_unnamed_addr #1 {
  %6 = load i8, ptr %2, align 1, !range !4, !noundef !5
  %7 = trunc nuw i8 %6 to i1
  br i1 %7, label %16, label %8

8:                                                ; preds = %5
  %9 = load i64, ptr %1, align 8
  %10 = tail call ptr @index_getprocinfo(ptr noundef %0, i16 noundef signext 1, i16 noundef zeroext 1) #8
  %11 = getelementptr inbounds nuw i8, ptr %0, i64 440
  %12 = load ptr, ptr %11, align 8
  %13 = load i32, ptr %12, align 4
  %14 = tail call i64 @FunctionCall1Coll(ptr noundef %10, i32 noundef %13, i64 noundef %9) #8
  %15 = and i64 %14, 4294967295
  store i64 %15, ptr %3, align 8
  store i8 0, ptr %4, align 1
  br label %16

16:                                               ; preds = %5, %8
  %.0 = xor i1 %7, true
  ret i1 %.0
}